(lp0
(dp1
S'ContactIds'
p2
(lp3
I1
aI2
aI-1
aI1
aI1
aI1
aI2
aI1
aI2
aI0
aI-1
aI2
asS'FOAAttrs'
p4
(dp5
S'dthetaFocusedObject'
p6
F0.32320457009315884
sS'dyFocusedObject'
p7
I-34
sS'FocusedObject'
p8
I0
sS'dxFocusedObject'
p9
I-163
sS'MaxObjects'
p10
I5
sS'FocusedObjectIsTracked'
p11
I0
sS'drFocusedObject'
p12
F-161.00701799452668
sS'FocusedObjectSize'
p13
F0.26391976150471053
ssS'Objects'
p14
(dp15
I0
(dp16
S'Theta'
p17
F1.4267999050860045
sS'R'
p18
F202.09156340629363
ssI1
(dp19
g17
F0.051237167403418812
sg18
F117.15374513859982
ssI2
(dp20
g17
F0.61775572556623259
sg18
F233.07724041613329
ssI3
(dp21
g17
F0.20447508759057575
sg18
F221.61678636782008
ssI4
(dp22
g17
F0.13277584812960974
sg18
F294.59293949448278
sssS'FrameId'
p23
F1305495351.202774
sa(dp24
g2
(lp25
I2
aI0
aI2
aI1
aI0
aI1
aI-1
aI0
aI-1
aI-1
aI1
aI0
asg4
(dp26
g6
F-0.25128693170631139
sg7
I-5
sg8
I1
sg9
I68
sg10
I2
sg11
I0
sg12
F56.568412317535277
sg13
F0.32762752153002961
ssg14
(dp27
I0
(dp28
g17
F0.49141824559422714
sg18
F80.529497701152962
ssI1
(dp29
g17
F0.62783659381178936
sg18
F76.609398901179219
sssg23
F1305495351.2329819
sa(dp30
g2
(lp31
I1
aI-1
aI2
aI1
aI1
aI2
aI1
aI0
aI1
aI2
aI2
aI-1
asg4
(dp32
g6
F0.46330286068074766
sg7
I20
sg8
I1
sg9
I-178
sg10
I4
sg11
I1
sg12
F-107.57022373667354
sg13
F0.9132099535692304
ssg14
(dp33
I0
(dp34
g17
F1.1938870564700756
sg18
F103.24727599312246
ssI1
(dp35
g17
F1.025932411343353
sg18
F77.175125526298956
ssI2
(dp36
g17
F1.4789502005301591
sg18
F228.96506283710622
ssI3
(dp37
g17
F0.40333010093311128
sg18
F252.23996511258878
sssg23
F1305495351.2632239
sa(dp38
g2
(lp39
I1
aI-1
aI1
aI-1
aI2
aI0
aI-1
aI1
aI2
aI0
aI0
aI2
asg4
(dp40
g6
F-0.021771967748062726
sg7
I9
sg8
I0
sg9
I47
sg10
I1
sg11
I0
sg12
F47.424559634593493
sg13
F0.2335330075347829
ssg14
(dp41
I0
(dp42
g17
F0.15878271566519125
sg18
F309.89837043779369
sssg23
F1305495351.2934361
sa(dp43
g2
(lp44
I0
aI-1
aI1
aI-1
aI-1
aI2
aI0
aI1
aI0
aI1
aI-1
aI-1
asg4
(dp45
g6
F0.68736605175254939
sg7
I122
sg8
I5
sg9
I-79
sg10
I6
sg11
I1
sg12
F66.415355168864409
sg13
F0.3429677740169722
ssg14
(dp46
I0
(dp47
g17
F0.53629581230470336
sg18
F332.71008400708268
ssI1
(dp48
g17
F1.2289911548140078
sg18
F220.77137495608437
ssI2
(dp49
g17
F0.94913640451180759
sg18
F247.25897354797863
ssI3
(dp50
g17
F0.065423737633194409
sg18
F290.62174729362562
ssI4
(dp51
g17
F0.35379749015367556
sg18
F305.94934221207274
ssI5
(dp52
g17
F0.72189982881184489
sg18
F245.15301344262525
sssg23
F1305495351.3236179
sa(dp53
g2
(lp54
I0
aI2
aI0
aI2
aI2
aI2
aI-1
aI0
aI1
aI2
aI0
aI-1
asg4
(dp55
g6
F0.5246481520918892
sg7
I200
sg8
I0
sg9
I116
sg10
I2
sg11
I1
sg12
F203.11285409817978
sg13
F0.66106861193631405
ssg14
(dp56
I0
(dp57
g17
F0.017728638822573726
sg18
F282.04432275796654
ssI1
(dp58
g17
F0.64686809943679213
sg18
F297.00168349691216
sssg23
F1305495351.3538449
sa(dp59
g2
(lp60
I1
aI1
aI0
aI1
aI1
aI-1
aI0
aI-1
aI-1
aI1
aI-1
aI-1
asg4
(dp61
g6
F-1.0893559632157781
sg7
I-201
sg8
I1
sg9
I191
sg10
I2
sg11
I0
sg12
F52.780853830638506
sg13
F0.81789250721208284
ssg14
(dp62
I0
(dp63
g17
F1.0383638771280168
sg18
F214.72307747422028
ssI1
(dp64
g17
F1.1235406921020958
sg18
F136.41847382227965
sssg23
F1305495351.384032
sa(dp65
g2
(lp66
I2
aI2
aI0
aI1
aI-1
aI1
aI2
aI2
aI-1
aI-1
aI0
aI1
asg4
(dp67
g6
F0.0079511888418463128
sg7
I-87
sg8
I0
sg9
I-64
sg10
I5
sg11
I0
sg12
F-108.00337799418635
sg13
F0.090261608155390083
ssg14
(dp68
I0
(dp69
g17
F0.66005339682153763
sg18
F265.83641586509549
ssI1
(dp70
g17
F0.69601432824761389
sg18
F301.01494979485653
ssI2
(dp71
g17
F0.49598134976989877
sg18
F166.00301202086666
ssI3
(dp72
g17
F0.75723659640955587
sg18
F100.44899203078147
ssI4
(dp73
g17
F1.3915805820179941
sg18
F140.24621207005913
sssg23
F1305495351.4142179
sa(dp74
g2
(lp75
I-1
aI2
aI0
aI0
aI1
aI-1
aI0
aI2
aI1
aI0
aI2
aI-1
asg4
(dp76
g6
F-0.57300376338542947
sg7
I-172
sg8
I3
sg9
I-15
sg10
I4
sg11
I0
sg12
F-67.010927007764423
sg13
F0.30407681551159471
ssg14
(dp77
I0
(dp78
g17
F0.32287794963489092
sg18
F280.49420671379295
ssI1
(dp79
g17
F0.93347751945251667
sg18
F129.40247292845683
ssI2
(dp80
g17
F0.61668761324544907
sg18
F261.09385285755008
ssI3
(dp81
g17
F1.3301796861656487
sg18
F222.40728405337808
sssg23
F1305495351.4444289
sa(dp82
g2
(lp83
I-1
aI1
aI1
aI0
aI0
aI-1
aI1
aI2
aI0
aI0
aI2
aI1
asg4
(dp84
g6
F0.84167437290607228
sg7
I123
sg8
I2
sg9
I-183
sg10
I6
sg11
I1
sg12
F-76.322714221603007
sg13
F0.46137750688503854
ssg14
(dp85
I0
(dp86
g17
F0.92190650957657838
sg18
F259.80377210502547
ssI1
(dp87
g17
F0.11281937996673737
sg18
F204.29880077964236
ssI2
(dp88
g17
F1.5060222048689791
sg18
F185.38878067455971
ssI3
(dp89
g17
F0.58060142290038419
sg18
F337.26695657890946
ssI4
(dp90
g17
F0.39152955266108691
sg18
F117.92370414806346
ssI5
(dp91
g17
F0.55277908277449961
sg18
F291.39835277502857
sssg23
F1305495351.4746931
sa(dp92
g2
(lp93
I-1
aI0
aI1
aI-1
aI2
aI0
aI-1
aI0
aI1
aI2
aI0
aI-1
asg4
(dp94
g6
F-0.14226648238474718
sg7
I-22
sg8
I0
sg9
I64
sg10
I2
sg11
I0
sg12
F53.937453070428091
sg13
F0.13963180345914716
ssg14
(dp95
I0
(dp96
g17
F0.03299132556052
sg18
F303.16497159137629
ssI1
(dp97
g17
F1.4394808878118086
sg18
F106.92053123698928
sssg23
F1305495351.5049419
sa(dp98
g2
(lp99
I-1
aI0
aI2
aI1
aI2
aI0
aI0
aI2
aI1
aI-1
aI2
aI-1
asg4
(dp100
g6
F-0.15321188703264396
sg7
I-51
sg8
I1
sg9
I-71
sg10
I2
sg11
I0
sg12
F-80.577003043607789
sg13
F0.43843809651194754
ssg14
(dp101
I0
(dp102
g17
F0.38924232260703007
sg18
F318.85106241002239
ssI1
(dp103
g17
F0.84358483421105257
sg18
F145.91093173576817
sssg23
F1305495351.5351059
sa(dp104
g2
(lp105
I1
aI2
aI2
aI1
aI-1
aI2
aI0
aI1
aI2
aI-1
aI2
aI0
asg4
(dp106
g6
F0.19466145866538592
sg7
I121
sg8
I3
sg9
I131
sg10
I6
sg11
I0
sg12
F176.12968844598964
sg13
F0.85634479652842121
ssg14
(dp107
I0
(dp108
g17
F1.5294406094210844
sg18
F145.12408483776909
ssI1
(dp109
g17
F0.18103181817879627
sg18
F227.72132091659753
ssI2
(dp110
g17
F0.19739555984988075
sg18
F316.13920984275268
ssI3
(dp111
g17
F1.5158059515867481
sg18
F218.33002542023394
ssI4
(dp112
g17
F0.43813480458983883
sg18
F280.49420671379295
ssI5
(dp113
g17
F1.0181396751522733
sg18
F196.2090721653818
sssg23
F1305495351.565289
sa(dp114
g2
(lp115
I-1
aI-1
aI0
aI1
aI2
aI1
aI2
aI2
aI-1
aI-1
aI-1
aI-1
asg4
(dp116
g6
F0.22960177989293096
sg7
I21
sg8
I0
sg9
I-57
sg10
I1
sg11
I1
sg12
F-10.734277597185155
sg13
F0.94179618991937508
ssg14
(dp117
I0
(dp118
g17
F1.453959987560439
sg18
F214.46211786700232
sssg23
F1305495351.5955231
sa(dp119
g2
(lp120
I1
aI1
aI0
aI-1
aI2
aI2
aI2
aI1
aI-1
aI2
aI1
aI1
asg4
(dp121
g6
F0.83306071974819562
sg7
I174
sg8
I0
sg9
I-40
sg10
I2
sg11
I0
sg12
F86.513840428162524
sg13
F0.40128777669479521
ssg14
(dp122
I0
(dp123
g17
F0.677386438697402
sg18
F59.033888572581766
ssI1
(dp124
g17
F0.39305801918193251
sg18
F310.69277429641005
sssg23
F1305495351.625706
sa(dp125
g2
(lp126
I2
aI2
aI2
aI1
aI0
aI1
aI2
aI2
aI0
aI2
aI0
aI2
asg4
(dp127
g6
F0.10089589671037719
sg7
I1
sg8
I0
sg9
I-31
sg10
I6
sg11
I1
sg12
F-26.916376624260778
sg13
F0.010289101011103252
ssg14
(dp128
I0
(dp129
g17
F0.50709850439233695
sg18
F329.46016451158403
ssI1
(dp130
g17
F0.26165702118127077
sg18
F305.39482641328419
ssI2
(dp131
g17
F0.45650487333139272
sg18
F313.05750270517393
ssI3
(dp132
g17
F1.3796118671978821
sg18
F126.30122723077555
ssI4
(dp133
g17
F0.19924398658020598
sg18
F106.09901036296239
ssI5
(dp134
g17
F0.95702623177832824
sg18
F215.29514625276622
sssg23
F1305495351.6559019
sa(dp135
g2
(lp136
I-1
aI0
aI-1
aI1
aI-1
aI2
aI1
aI2
aI-1
aI-1
aI-1
aI0
asg4
(dp137
g6
F-0.64992790045282556
sg7
I-117
sg8
I3
sg9
I57
sg10
I5
sg11
I1
sg12
F-49.724588348804389
sg13
F0.49444621015172396
ssg14
(dp138
I0
(dp139
g17
F0.56408372104965698
sg18
F231.93102422918759
ssI1
(dp140
g17
F0.65962874263692062
sg18
F248.03225596683993
ssI2
(dp141
g17
F1.0516502125483738
sg18
F64.498061986388393
ssI3
(dp142
g17
F0.1773618105968949
sg18
F323.06810427524408
ssI4
(dp143
g17
F0.56816051425603942
sg18
F321.51205265121865
sssg23
F1305495351.686131
sa(dp144
g2
(lp145
I-1
aI-1
aI-1
aI2
aI0
aI0
aI2
aI-1
aI-1
aI-1
aI0
aI0
asg4
(dp146
g6
F-0.032102741754947206
sg7
I-28
sg8
I2
sg9
I-42
sg10
I5
sg11
I0
sg12
F-49.669851442173979
sg13
F0.32020441941412747
ssg14
(dp147
I0
(dp148
g17
F0.052583061610941721
sg18
F266.36816626616627
ssI1
(dp149
g17
F0.73805202694067396
sg18
F283.86792703650053
ssI2
(dp150
g17
F1.2613908242424789
sg18
F128.08200498118384
ssI3
(dp151
g17
F0.71445144895725887
sg18
F279.30270317345662
ssI4
(dp152
g17
F0.48628022848581048
sg18
F335.9434476217686
sssg23
F1305495351.716336
sa(dp153
g2
(lp154
I0
aI0
aI-1
aI0
aI2
aI0
aI2
aI-1
aI0
aI-1
aI2
aI-1
asg4
(dp155
g6
F0.08660880934791132
sg7
I9
sg8
I2
sg9
I2
sg10
I5
sg11
I0
sg12
F4.1612745779694365
sg13
F0.12864155335464866
ssg14
(dp156
I0
(dp157
g17
F0.89529838244493776
sg18
F206.30559856678636
ssI1
(dp158
g17
F0.20846521837998772
sg18
F53.150729063673246
ssI2
(dp159
g17
F1.2490457723982544
sg18
F123.3288287465668
ssI3
(dp160
g17
F0.85773549393604331
sg18
F97.836598469080073
ssI4
(dp161
g17
F0.29318689655788222
sg18
F55.362442142665635
sssg23
F1305495351.7465839
sa(dp162
g2
(lp163
I2
aI1
aI2
aI1
aI1
aI-1
aI2
aI1
aI2
aI2
aI1
aI0
asg4
(dp164
g6
F-0.87602230235166023
sg7
I-176
sg8
I0
sg9
I-17
sg10
I2
sg11
I0
sg12
F-135.56817991684409
sg13
F0.58986878245906171
ssg14
(dp165
I0
(dp166
g17
F0.16697016902492895
sg18
F90.255193756370602
ssI1
(dp167
g17
F0.49959339163072652
sg18
F323.54443280637668
sssg23
F1305495351.7768199
sa(dp168
g2
(lp169
I-1
aI1
aI0
aI0
aI-1
aI2
aI1
aI1
aI1
aI2
aI2
aI0
asg4
(dp170
g6
F0.11278203251283622
sg7
I18
sg8
I0
sg9
I-55
sg10
I2
sg11
I0
sg12
F-50.822846735217979
sg13
F0.3717949342690875
ssg14
(dp171
I0
(dp172
g17
F0.64960536149732984
sg18
F360.40671469882466
ssI1
(dp173
g17
F0.6717037457918319
sg18
F205.6817930688081
sssg23
F1305495351.8070271
sa(dp174
g2
(lp175
I1
aI2
aI2
aI0
aI2
aI0
aI2
aI-1
aI1
aI1
aI0
aI0
asg4
(dp176
g6
F-0.73312520308698437
sg7
I-103
sg8
I1
sg9
I38
sg10
I6
sg11
I1
sg12
F-10.313453162357348
sg13
F0.90384223823305798
ssg14
(dp177
I0
(dp178
g17
F0.12665913793456587
sg18
F269.15608854343236
ssI1
(dp179
g17
F0.40725584807484683
sg18
F111.08555261599052
ssI2
(dp180
g17
F1.2858389765447424
sg18
F103.16006979447037
ssI3
(dp181
g17
F0.88708701516052535
sg18
F208.96889720721597
ssI4
(dp182
g17
F0.52240343171652881
sg18
F266.55205870523679
ssI5
(dp183
g17
F0.86831751820943293
sg18
F264.66015944981217
sssg23
F1305495351.8372691
sa(dp184
g2
(lp185
I1
aI1
aI1
aI1
aI2
aI2
aI2
aI0
aI1
aI1
aI2
aI2
asg4
(dp186
g6
F1.0372180167421068
sg7
I155
sg8
I0
sg9
I-153
sg10
I1
sg11
I1
sg12
F18.797056545905349
sg13
F0.84282494217817305
ssg14
(dp187
I0
(dp188
g17
F0.90975315794420974
sg18
F136.82105101189657
sssg23
F1305495351.8674769
sa(dp189
g2
(lp190
I-1
aI1
aI2
aI-1
aI-1
aI1
aI1
aI2
aI0
aI1
aI1
aI0
asg4
(dp191
g6
F1.1501617872058232
sg7
I78
sg8
I2
sg9
I-300
sg10
I6
sg11
I0
sg12
F-123.19914937688333
sg13
F0.21252471729551436
ssg14
(dp192
I0
(dp193
g17
F1.2160906747839564
sg18
F57.584720195551874
ssI1
(dp194
g17
F0.58268754349933061
sg18
F365.27523868995007
ssI2
(dp195
g17
F1.3292306196995707
sg18
F142.12670403551894
ssI3
(dp196
g17
F0.2000837254177682
sg18
F145.91093173576817
ssI4
(dp197
g17
F0.075200389158525699
sg18
F146.4137971640651
ssI5
(dp198
g17
F1.4189138694149457
sg18
F99.141313285632847
sssg23
F1305495351.897639
sa(dp199
g2
(lp200
I2
aI0
aI-1
aI1
aI0
aI1
aI0
aI1
aI0
aI-1
aI0
aI-1
asg4
(dp201
g6
F0.48665802296266603
sg7
I63
sg8
I0
sg9
I-64
sg10
I5
sg11
I1
sg12
F12.562077209737026
sg13
F0.20328521631243057
ssg14
(dp202
I0
(dp203
g17
F0.78972714068450778
sg18
F163.3431969810803
ssI1
(dp204
g17
F0.57493921368021195
sg18
F233.54871012274933
ssI2
(dp205
g17
F0.040886292610145564
sg18
F220.18401395196702
ssI3
(dp206
g17
F0.13613896085314076
sg18
F147.36349615830918
ssI4
(dp207
g17
F0.38633721482131445
sg18
F318.47291878588356
sssg23
F1305495351.927861
sa(dp208
g2
(lp209
I1
aI2
aI2
aI-1
aI-1
aI2
aI0
aI0
aI1
aI2
aI-1
aI2
asg4
(dp210
g6
F0.28015150591758087
sg7
I50
sg8
I1
sg9
I-73
sg10
I2
sg11
I0
sg12
F-28.317560009109343
sg13
F0.37116581931783732
ssg14
(dp211
I0
(dp212
g17
F0.27728339919236883
sg18
F135.16286472252651
ssI1
(dp213
g17
F0.066336091373399242
sg18
F286.63042406555519
sssg23
F1305495351.9581161
sa(dp214
g2
(lp215
I0
aI1
aI1
aI2
aI1
aI-1
aI2
aI-1
aI-1
aI2
aI-1
aI-1
asg4
(dp216
g6
F0.49671867199586639
sg7
I187
sg8
I0
sg9
I37
sg10
I2
sg11
I1
sg12
F114.00488864036731
sg13
F0.41760916938451642
ssg14
(dp217
I0
(dp218
g17
F0.96635419857559934
sg18
F286.81875810344064
ssI1
(dp219
g17
F0.3459672726127962
sg18
F91.4166286842826
sssg23
F1305495351.988313
sa(dp220
g2
(lp221
I-1
aI2
aI1
aI-1
aI0
aI1
aI0
aI2
aI1
aI0
aI1
aI-1
asg4
(dp222
g6
F-0.79378466017577254
sg7
I-138
sg8
I0
sg9
I142
sg10
I3
sg11
I0
sg12
F-0.67155799048009612
sg13
F0.56323595860748465
ssg14
(dp223
I0
(dp224
g17
F0.45830006639165544
sg18
F250.89041432466087
ssI1
(dp225
g17
F0.74441166608374298
sg18
F224.34125790857107
ssI2
(dp226
g17
F0.44365027502765558
sg18
F335.47727195743084
sssg23
F1305495352.018507
sa(dp227
g2
(lp228
I2
aI2
aI1
aI0
aI1
aI1
aI0
aI1
aI1
aI1
aI2
aI1
asg4
(dp229
g6
F-0.24277692159779346
sg7
I-110
sg8
I0
sg9
I-55
sg10
I1
sg11
I0
sg12
F-100.33019698797398
sg13
F0.8911572276769899
ssg14
(dp230
I0
(dp231
g17
F1.5707963267948966
sg18
F137.0
sssg23
F1305495352.0487211
sa(dp232
g2
(lp233
I-1
aI0
aI0
aI2
aI2
aI1
aI-1
aI1
aI-1
aI-1
aI0
aI-1
asg4
(dp234
g6
F0.57967316068489505
sg7
I192
sg8
I4
sg9
I31
sg10
I5
sg11
I0
sg12
F175.14994784780922
sg13
F0.35478468284345965
ssg14
(dp235
I0
(dp236
g17
F0.17604318800393887
sg18
F211.26523613694707
ssI1
(dp237
g17
F0.54329801851480608
sg18
F297.89427654790552
ssI2
(dp238
g17
F0.40391807675834218
sg18
F134.85177047410241
ssI3
(dp239
g17
F1.1309537439791604
sg18
F150.30635382444748
ssI4
(dp240
g17
F1.0701286019201606
sg18
F241.66091947189145
sssg23
F1305495352.0788939
sa(dp241
g2
(lp242
I-1
aI2
aI-1
aI-1
aI2
aI-1
aI-1
aI0
aI-1
aI1
aI-1
aI2
asg4
(dp243
g6
F0.2189973120060269
sg7
I69
sg8
I1
sg9
I218
sg10
I2
sg11
I0
sg12
F227.20539466826494
sg13
F0.028303197839197658
ssg14
(dp244
I0
(dp245
g17
F0.49655109015982413
sg18
F285.47679415322011
ssI1
(dp246
g17
F1.2351577764672874
sg18
F91.082380293885606
sssg23
F1305495352.1091039
sa(dp247
g2
(lp248
I0
aI-1
aI1
aI0
aI2
aI0
aI1
aI-1
aI2
aI1
aI1
aI2
asg4
(dp249
g6
F0.60594246243037031
sg7
I129
sg8
I1
sg9
I81
sg10
I3
sg11
I1
sg12
F128.09640831133174
sg13
F0.053012602897610006
ssg14
(dp250
I0
(dp251
g17
F0.61617784724538982
sg18
F285.50656735003486
ssI1
(dp252
g17
F1.4747623697924241
sg18
F219.0091322296858
ssI2
(dp253
g17
F0.38312588651045909
sg18
F283.55775425828159
sssg23
F1305495352.1392889
sa(dp254
g2
(lp255
I1
aI1
aI2
aI1
aI2
aI-1
aI-1
aI2
aI0
aI2
aI-1
aI1
asg4
(dp256
g6
F-0.76752011947991428
sg7
I-41
sg8
I1
sg9
I3
sg10
I5
sg11
I1
sg12
F-21.165423911885505
sg13
F0.39315084478785289
ssg14
(dp257
I0
(dp258
g17
F1.4987562614080687
sg18
F97.252249331313664
ssI1
(dp259
g17
F0.62463542277161355
sg18
F106.01886624558857
ssI2
(dp260
g17
F0.54557167950634111
sg18
F366.15433904297788
ssI3
(dp261
g17
F0.61656626138632753
sg18
F252.49158401816089
ssI4
(dp262
g17
F1.2890244595215445
sg18
F158.24032355881985
sssg23
F1305495352.169523
sa(dp263
g2
(lp264
I0
aI1
aI-1
aI1
aI-1
aI-1
aI1
aI2
aI-1
aI2
aI2
aI0
asg4
(dp265
g6
F-0.27293346420339754
sg7
I-86
sg8
I0
sg9
I-60
sg10
I3
sg11
I1
sg12
F-92.371396678375163
sg13
F0.16596035579994883
ssg14
(dp266
I0
(dp267
g17
F1.00589192476412
sg18
F84.059502734670033
ssI1
(dp268
g17
F0.73600870370363214
sg18
F186.19613314996636
ssI2
(dp269
g17
F1.2649174553900444
sg18
F79.699435380685102
sssg23
F1305495352.1997991
sa(dp270
g2
(lp271
I1
aI2
aI1
aI1
aI1
aI-1
aI0
aI1
aI0
aI0
aI0
aI0
asg4
(dp272
g6
F0.8396871910120467
sg7
I5
sg8
I1
sg9
I-258
sg10
I2
sg11
I1
sg12
F-163.71260007673149
sg13
F0.018019238401128845
ssg14
(dp273
I0
(dp274
g17
F0.42326553343630618
sg18
F221.55134844996994
ssI1
(dp275
g17
F0.96632462415156983
sg18
F235.77955806218657
sssg23
F1305495352.2299609
sa(dp276
g2
(lp277
I2
aI-1
aI-1
aI1
aI1
aI2
aI-1
aI2
aI0
aI0
aI1
aI-1
asg4
(dp278
g6
F0.48294146883488925
sg7
I168
sg8
I3
sg9
I-19
sg10
I6
sg11
I1
sg12
F53.813961781411706
sg13
F0.87970685100083268
ssg14
(dp279
I0
(dp280
g17
F1.3854483767992019
sg18
F195.34584715319647
ssI1
(dp281
g17
F0.37206775885812043
sg18
F88.022724338661547
ssI2
(dp282
g17
F0.82728980849337719
sg18
F236.3810483097154
ssI3
(dp283
g17
F0.32175055439664219
sg18
F158.11388300841898
ssI4
(dp284
g17
F0.29977607009997964
sg18
F57.56735185849702
ssI5
(dp285
g17
F0.97508971541982892
sg18
F180.00555546982432
sssg23
F1305495352.2601681
sa(dp286
g2
(lp287
I0
aI2
aI2
aI1
aI1
aI2
aI0
aI1
aI1
aI-1
aI0
aI0
asg4
(dp288
g6
F0.83784093866930309
sg7
I140
sg8
I4
sg9
I-178
sg10
I5
sg11
I0
sg12
F-84.250451814745077
sg13
F0.4686602138725845
ssg14
(dp289
I0
(dp290
g17
F1.1054764785501576
sg18
F267.43410403312441
ssI1
(dp291
g17
F0.32811989501530536
sg18
F49.648766349225639
ssI2
(dp292
g17
F0.79831734123115594
sg18
F273.67316273248275
ssI3
(dp293
g17
F0.13609613796861744
sg18
F316.93059177050105
ssI4
(dp294
g17
F0.39824981753795113
sg18
F177.92414113885727
sssg23
F1305495352.290386
sa(dp295
g2
(lp296
I1
aI1
aI-1
aI-1
aI-1
aI-1
aI1
aI0
aI0
aI0
aI2
aI0
asg4
(dp297
g6
F0.61733215631445515
sg7
I226
sg8
I4
sg9
I198
sg10
I5
sg11
I0
sg12
F288.75803478329829
sg13
F0.2799354744777709
ssg14
(dp298
I0
(dp299
g17
F0.05731420910603989
sg18
F244.40130932546168
ssI1
(dp300
g17
F0.47076492654201596
sg18
F125.67020331009256
ssI2
(dp301
g17
F0.43822935574173044
sg18
F263.9412813487121
ssI3
(dp302
g17
F0.80325340853700078
sg18
F316.83434157300564
ssI4
(dp303
g17
F0.20390588453641009
sg18
F301.24076749337894
sssg23
F1305495352.3206079
sa(dp304
g2
(lp305
I-1
aI2
aI0
aI2
aI0
aI2
aI2
aI0
aI1
aI1
aI1
aI-1
asg4
(dp306
g6
F1.1959649355790301
sg7
I161
sg8
I1
sg9
I-160
sg10
I5
sg11
I0
sg12
F-41.718510496755954
sg13
F0.41644998090222796
ssg14
(dp307
I0
(dp308
g17
F0.87050017708676131
sg18
F299.48288765804301
ssI1
(dp309
g17
F0.047024131842746217
sg18
F255.28219679405768
ssI2
(dp310
g17
F0.057713613608965667
sg18
F225.37524265100637
ssI3
(dp311
g17
F0.63831980800904586
sg18
F386.00518131237567
ssI4
(dp312
g17
F0.95825877018459327
sg18
F45.221676218380054
sssg23
F1305495352.350863
sa(dp313
g2
(lp314
I0
aI-1
aI2
aI0
aI0
aI2
aI2
aI2
aI0
aI0
aI2
aI0
asg4
(dp315
g6
F0.90159859238107487
sg7
I169
sg8
I0
sg9
I-158
sg10
I4
sg11
I0
sg12
F-24.943844317144311
sg13
F0.69875998421424057
ssg14
(dp316
I0
(dp317
g17
F0.84556641455245807
sg18
F293.98129192178197
ssI1
(dp318
g17
F0.5096677251166607
sg18
F340.24256053586242
ssI2
(dp319
g17
F0.41529822234890323
sg18
F277.5968299530814
ssI3
(dp320
g17
F0.36798093614498428
sg18
F266.865134478073
sssg23
F1305495352.3810861
sa(dp321
g2
(lp322
I2
aI1
aI2
aI-1
aI0
aI1
aI1
aI-1
aI1
aI2
aI2
aI2
asg4
(dp323
g6
F-0.46055319609629641
sg7
I-50
sg8
I1
sg9
I125
sg10
I2
sg11
I1
sg12
F63.247787455139616
sg13
F0.56278298574661967
ssg14
(dp324
I0
(dp325
g17
F0.11601799456313235
sg18
F267.8002987302292
ssI1
(dp326
g17
F1.1934478339222796
sg18
F176.41145087550296
sssg23
F1305495352.4113059
sa(dp327
g2
(lp328
I-1
aI0
aI1
aI1
aI1
aI2
aI2
aI1
aI2
aI-1
aI2
aI2
asg4
(dp329
g6
F-0.014570511964360544
sg7
I-9
sg8
I2
sg9
I-21
sg10
I6
sg11
I0
sg12
F-22.637816073684093
sg13
F0.14537299010810012
ssg14
(dp330
I0
(dp331
g17
F0.49432851562884916
sg18
F349.88569562072695
ssI1
(dp332
g17
F0.95099108778418306
sg18
F261.67346063366841
ssI2
(dp333
g17
F0.1624357160836111
sg18
F302.98844862469593
ssI3
(dp334
g17
F0.46767984521189954
sg18
F332.72961996191441
ssI4
(dp335
g17
F0.20065287731988662
sg18
F180.62391868188442
ssI5
(dp336
g17
F1.1659045405098132
sg18
F60.926184846911269
sssg23
F1305495352.4414899
sa(dp337
g2
(lp338
I0
aI1
aI2
aI1
aI2
aI1
aI2
aI-1
aI-1
aI1
aI1
aI-1
asg4
(dp339
g6
F0.24854115573365482
sg7
I57
sg8
I3
sg9
I70
sg10
I6
sg11
I0
sg12
F86.14522425725805
sg13
F0.16381325601135199
ssg14
(dp340
I0
(dp341
g17
F0.34965792131143897
sg18
F192.65772758962979
ssI1
(dp342
g17
F0.2866212422254526
sg18
F297.12118739665806
ssI2
(dp343
g17
F0.88506681588861036
sg18
F71.06335201775947
ssI3
(dp344
g17
F1.3029707148200009
sg18
F222.9484245290825
ssI4
(dp345
g17
F0.72323768457631787
sg18
F170.74249617479535
ssI5
(dp346
g17
F0.47824511221186627
sg18
F306.37395450658011
sssg23
F1305495352.4717419
sa(dp347
g2
(lp348
I1
aI0
aI0
aI-1
aI0
aI1
aI1
aI2
aI-1
aI2
aI-1
aI0
asg4
(dp349
g6
F-0.43252353311125724
sg7
I47
sg8
I0
sg9
I188
sg10
I3
sg11
I1
sg12
F153.4641259100496
sg13
F0.57994600807813457
ssg14
(dp350
I0
(dp351
g17
F0.61025648085562723
sg18
F174.49641830135081
ssI1
(dp352
g17
F1.1555689912396649
sg18
F203.2732151563506
ssI2
(dp353
g17
F0.34142936333887575
sg18
F337.48036979948921
sssg23
F1305495352.5019851
sa(dp354
g2
(lp355
I2
aI0
aI2
aI1
aI0
aI0
aI1
aI2
aI2
aI1
aI-1
aI1
asg4
(dp356
g6
F-0.016420253113617944
sg7
I42
sg8
I0
sg9
I12
sg10
I2
sg11
I0
sg12
F43.628750936851915
sg13
F0.68266034198193293
ssg14
(dp357
I0
(dp358
g17
F0.76985537366793189
sg18
F272.97618943783357
ssI1
(dp359
g17
F0.080904099155230599
sg18
F37.12142238654117
sssg23
F1305495352.5322461
sa(dp360
g2
(lp361
I0
aI1
aI1
aI0
aI-1
aI1
aI1
aI0
aI1
aI0
aI2
aI-1
asg4
(dp362
g6
F-0.18407377661010882
sg7
I-34
sg8
I3
sg9
I45
sg10
I6
sg11
I0
sg12
F17.99538949145375
sg13
F0.20909496667948568
ssg14
(dp363
I0
(dp364
g17
F0.12750955821523827
sg18
F117.957619508025
ssI1
(dp365
g17
F0.28678538653966074
sg18
F307.5613759885984
ssI2
(dp366
g17
F0.16154292381062482
sg18
F273.56169322476421
ssI3
(dp367
g17
F0.0082642746596511604
sg18
F242.00826432169626
ssI4
(dp368
g17
F0.037020115873930025
sg18
F27.018512172212592
ssI5
(dp369
g17
F1.0922244528040055
sg18
F149.83324063771698
sssg23
F1305495352.562489
sa(dp370
g2
(lp371
I2
aI2
aI-1
aI-1
aI2
aI-1
aI1
aI1
aI-1
aI1
aI2
aI2
asg4
(dp372
g6
F-1.3125852795209005
sg7
I-122
sg8
I2
sg9
I217
sg10
I3
sg11
I1
sg12
F67.566357765318088
sg13
F0.1554479631939143
ssg14
(dp373
I0
(dp374
g17
F1.102902458814242
sg18
F210.63950246807934
ssI1
(dp375
g17
F1.1030754205663493
sg18
F219.58369702689677
ssI2
(dp376
g17
F1.3325515686161515
sg18
F144.06942770761603
sssg23
F1305495352.592675
sa(dp377
g2
(lp378
I1
aI-1
aI1
aI1
aI-1
aI1
aI1
aI1
aI2
aI-1
aI1
aI1
asg4
(dp379
g6
F0.14405850425075006
sg7
I16
sg8
I1
sg9
I-19
sg10
I4
sg11
I0
sg12
F8.4907241293781226
sg13
F0.72490534984344124
ssg14
(dp380
I0
(dp381
g17
F0.16514867741462683
sg18
F273.72431386341987
ssI1
(dp382
g17
F1.3449846452515413
sg18
F151.85519418182574
ssI2
(dp383
g17
F0.31570833185594149
sg18
F209.34660255184463
ssI3
(dp384
g17
F0.14610854116947969
sg18
F302.22011845673012
sssg23
F1305495352.6228721
sa(dp385
g2
(lp386
I-1
aI2
aI-1
aI-1
aI2
aI0
aI0
aI2
aI1
aI0
aI0
aI2
asg4
(dp387
g6
F0.31336171524993267
sg7
I137
sg8
I3
sg9
I31
sg10
I4
sg11
I1
sg12
F97.116244414552853
sg13
F0.4627062957885143
ssg14
(dp388
I0
(dp389
g17
F1.2847448850775784
sg18
F230.36058690670154
ssI1
(dp390
g17
F0.43050094050762544
sg18
F256.39422770413535
ssI2
(dp391
g17
F0.68002072420850579
sg18
F295.79722784366999
ssI3
(dp392
g17
F0.30781417449048548
sg18
F181.53236626012455
sssg23
F1305495352.6530759
sa(dp393
g2
(lp394
I0
aI2
aI1
aI-1
aI-1
aI-1
aI0
aI0
aI1
aI1
aI-1
aI-1
asg4
(dp395
g6
F0.4755870721652431
sg7
I45
sg8
I0
sg9
I-49
sg10
I3
sg11
I1
sg12
F-1.7496957592563547
sg13
F0.62873644113062266
ssg14
(dp396
I0
(dp397
g17
F0.70246539512908512
sg18
F281.6895454219059
ssI1
(dp398
g17
F1.396124127786657
sg18
F69.050706006528273
ssI2
(dp399
g17
F0.5671412488145694
sg18
F372.28483718787152
sssg23
F1305495352.6832831
sa(dp400
g2
(lp401
I1
aI-1
aI1
aI0
aI2
aI1
aI-1
aI2
aI1
aI2
aI2
aI-1
asg4
(dp402
g6
F-0.12364244894859444
sg7
I58
sg8
I2
sg9
I126
sg10
I6
sg11
I1
sg12
F136.74969362547506
sg13
F0.1923529824606669
ssg14
(dp403
I0
(dp404
g17
F0.15320181452689666
sg18
F275.22354550437723
ssI1
(dp405
g17
F0.42366892187751609
sg18
F279.7320146139873
ssI2
(dp406
g17
F0.63246634913399091
sg18
F380.62317323042748
ssI3
(dp407
g17
F0.098336504078470915
sg18
F224.08257406590099
ssI4
(dp408
g17
F0.89191176187746091
sg18
F113.07077429645558
ssI5
(dp409
g17
F1.2909792182716535
sg18
F90.520715861066847
sssg23
F1305495352.7135429
sa(dp410
g2
(lp411
I0
aI1
aI0
aI2
aI0
aI1
aI2
aI-1
aI2
aI1
aI2
aI1
asg4
(dp412
g6
F0.49612438389686619
sg7
I96
sg8
I0
sg9
I-71
sg10
I1
sg11
I0
sg12
F55.092921948710995
sg13
F0.9113741493229276
ssg14
(dp413
I0
(dp414
g17
F0.43600488235808171
sg18
F194.164878389476
sssg23
F1305495352.7437749
sa(dp415
g2
(lp416
I1
aI2
aI2
aI-1
aI1
aI-1
aI2
aI0
aI0
aI2
aI-1
aI2
asg4
(dp417
g6
F1.4353771221082168
sg7
I97
sg8
I0
sg9
I-278
sg10
I6
sg11
I1
sg12
F-160.18430268807626
sg13
F0.30413606331537313
ssg14
(dp418
I0
(dp419
g17
F0.19674578736172921
sg18
F301.82279569310202
ssI1
(dp420
g17
F1.0902726829471692
sg18
F212.00943375236866
ssI2
(dp421
g17
F0.3440552931903374
sg18
F326.11194397016493
ssI3
(dp422
g17
F0.043450895391530839
sg18
F23.021728866442675
ssI4
(dp423
g17
F0.11487660541689913
sg18
F209.38003725283841
ssI5
(dp424
g17
F1.2243773376900378
sg18
F217.947241322298
sssg23
F1305495352.7739611
sa(dp425
g2
(lp426
I1
aI1
aI-1
aI-1
aI1
aI-1
aI1
aI0
aI0
aI0
aI1
aI-1
asg4
(dp427
g6
F-1.3775848429470905
sg7
I-71
sg8
I0
sg9
I46
sg10
I2
sg11
I0
sg12
F-33.127833418968137
sg13
F0.24082947350918593
ssg14
(dp428
I0
(dp429
g17
F0.88223716865875534
sg18
F124.32618388738553
ssI1
(dp430
g17
F0.079829985712237317
sg18
F175.55910685578235
sssg23
F1305495352.804177
sa(dp431
g2
(lp432
I1
aI-1
aI1
aI0
aI-1
aI0
aI2
aI1
aI2
aI1
aI-1
aI-1
asg4
(dp433
g6
F0.27336443363644158
sg7
I23
sg8
I0
sg9
I-73
sg10
I1
sg11
I0
sg12
F-47.576622957554406
sg13
F0.74271258831466691
ssg14
(dp434
I0
(dp435
g17
F0.21018258666216955
sg18
F153.37535656030275
sssg23
F1305495352.834358
sa(dp436
g2
(lp437
I0
aI1
aI-1
aI2
aI1
aI-1
aI2
aI2
aI-1
aI-1
aI-1
aI-1
asg4
(dp438
g6
F-0.51858209851388781
sg7
I-141
sg8
I0
sg9
I77
sg10
I6
sg11
I1
sg12
F-4.3648012954741944
sg13
F0.48502361601595145
ssg14
(dp439
I0
(dp440
g17
F1.4358744285672689
sg18
F223.02690420664499
ssI1
(dp441
g17
F0.91467316744559135
sg18
F285.22271999264012
ssI2
(dp442
g17
F0.17360769014910238
sg18
F272.09005862030313
ssI3
(dp443
g17
F0.88034986974020468
sg18
F59.665735560705194
ssI4
(dp444
g17
F1.5337762109209665
sg18
F54.037024344425184
ssI5
(dp445
g17
F0.40674707172597097
sg18
F141.54857823376398
sssg23
F1305495352.8645339
sa(dp446
g2
(lp447
I-1
aI0
aI2
aI0
aI1
aI0
aI-1
aI2
aI0
aI0
aI2
aI0
asg4
(dp448
g6
F-0.65081103620419967
sg7
I62
sg8
I0
sg9
I244
sg10
I1
sg11
I1
sg12
F211.76868861866416
sg13
F0.75789922647154251
ssg14
(dp449
I0
(dp450
g17
F1.3258176636680326
sg18
F28.861739379323623
sssg23
F1305495352.8947921
sa(dp451
g2
(lp452
I0
aI-1
aI0
aI2
aI1
aI-1
aI2
aI0
aI2
aI2
aI-1
aI-1
asg4
(dp453
g6
F-0.028442500653609981
sg7
I144
sg8
I1
sg9
I85
sg10
I2
sg11
I0
sg12
F167.18463781278911
sg13
F0.93522761368624507
ssg14
(dp454
I0
(dp455
g17
F0.79663364565541106
sg18
F188.80942773071476
ssI1
(dp456
g17
F1.5707963267948966
sg18
F10.0
sssg23
F1305495352.924989
sa(dp457
g2
(lp458
I0
aI-1
aI0
aI0
aI0
aI2
aI2
aI0
aI1
aI2
aI1
aI2
asg4
(dp459
g6
F-0.21976968279079601
sg7
I46
sg8
I2
sg9
I163
sg10
I4
sg11
I1
sg12
F164.65498290827975
sg13
F0.53889020673260668
ssg14
(dp460
I0
(dp461
g17
F0.19577218465255797
sg18
F241.61539686038222
ssI1
(dp462
g17
F0.038442590021187981
sg18
F130.09611831257686
ssI2
(dp463
g17
F0.11296242686470927
sg18
F239.52661647507986
ssI3
(dp464
g17
F0.81600085132616718
sg18
F277.31570456791661
sssg23
F1305495352.955152
sa(dp465
g2
(lp466
I2
aI-1
aI2
aI0
aI2
aI2
aI1
aI-1
aI2
aI0
aI0
aI1
asg4
(dp467
g6
F-0.53170489270587995
sg7
I-28
sg8
I4
sg9
I129
sg10
I6
sg11
I1
sg12
F36.914575983053368
sg13
F0.88427706636695469
ssg14
(dp468
I0
(dp469
g17
F0.68670990274904176
sg18
F287.06793621022882
ssI1
(dp470
g17
F0.320591806363694
sg18
F272.90474528670256
ssI2
(dp471
g17
F1.4096054123566495
sg18
F124.61540835707277
ssI3
(dp472
g17
F0.42410479413933228
sg18
F328.06401814280088
ssI4
(dp473
g17
F1.2277723863741932
sg18
F148.66068747318505
ssI5
(dp474
g17
F0.74506131010036203
sg18
F315.62636138320261
sssg23
F1305495352.985364
sa(dp475
g2
(lp476
I0
aI1
aI-1
aI0
aI-1
aI0
aI1
aI0
aI2
aI2
aI0
aI0
asg4
(dp477
g6
F0.18042332735794608
sg7
I12
sg8
I0
sg9
I-58
sg10
I3
sg11
I0
sg12
F-31.636825995665674
sg13
F0.035926983389369505
ssg14
(dp478
I0
(dp479
g17
F1.1516109211059982
sg18
F211.29363454680788
ssI1
(dp480
g17
F0.60799993752071813
sg18
F360.62723136224753
ssI2
(dp481
g17
F1.04100602555691
sg18
F209.75461854271529
sssg23
F1305495353.015599
sa(dp482
g2
(lp483
I1
aI-1
aI-1
aI0
aI0
aI2
aI2
aI-1
aI-1
aI0
aI2
aI1
asg4
(dp484
g6
F-0.38456068074741678
sg7
I-100
sg8
I1
sg9
I18
sg10
I2
sg11
I1
sg12
F-8.6136238733565165
sg13
F0.034976927637253241
ssg14
(dp485
I0
(dp486
g17
F0.11259595468902517
sg18
F284.80344099044873
ssI1
(dp487
g17
F1.2971370057128062
sg18
F236.81216184985095
sssg23
F1305495353.045804
sa(dp488
g2
(lp489
I0
aI1
aI1
aI-1
aI2
aI0
aI1
aI-1
aI1
aI2
aI2
aI0
asg4
(dp490
g6
F-0.76715030607033508
sg7
I-109
sg8
I0
sg9
I149
sg10
I1
sg11
I0
sg12
F32.581786080390486
sg13
F0.034673832637320601
ssg14
(dp491
I0
(dp492
g17
F1.3228414819792058
sg18
F81.492330927517344
sssg23
F1305495353.075999
sa(dp493
g2
(lp494
I1
aI2
aI1
aI0
aI-1
aI0
aI1
aI2
aI-1
aI2
aI-1
aI0
asg4
(dp495
g6
F0.22436912213604043
sg7
I28
sg8
I2
sg9
I0
sg10
I4
sg11
I0
sg12
F15.12691282469207
sg13
F0.59232148932060602
ssg14
(dp496
I0
(dp497
g17
F0.55859931534356244
sg18
F301.8873962258113
ssI1
(dp498
g17
F0.6498704494119476
sg18
F125.60254774486066
ssI2
(dp499
g17
F1.5707963267948966
sg18
F230.0
ssI3
(dp500
g17
F0.20106751397073855
sg18
F160.22796260328596
sssg23
F1305495353.1062191
sa(dp501
g2
(lp502
I0
aI2
aI2
aI1
aI-1
aI2
aI1
aI2
aI-1
aI2
aI1
aI1
asg4
(dp503
g6
F-1.2191731570319546
sg7
I-128
sg8
I0
sg9
I205
sg10
I2
sg11
I0
sg12
F72.591235896047522
sg13
F0.015527051191857821
ssg14
(dp504
I0
(dp505
g17
F0.29958382402737205
sg18
F271.07379069175977
ssI1
(dp506
g17
F1.3019136937080857
sg18
F233.38594644922389
sssg23
F1305495353.1364181
sa(dp507
g2
(lp508
I1
aI-1
aI0
aI2
aI-1
aI0
aI-1
aI0
aI-1
aI2
aI2
aI2
asg4
(dp509
g6
F1.3197006412172312
sg7
I103
sg8
I0
sg9
I-185
sg10
I2
sg11
I0
sg12
F-47.775038024775313
sg13
F0.83497529898783296
ssg14
(dp510
I0
(dp511
g17
F0.19930516924096356
sg18
F308.09901006007794
ssI1
(dp512
g17
F0.57687959176563053
sg18
F249.35316320431951
sssg23
F1305495353.166599
sa(dp513
g2
(lp514
I0
aI-1
aI1
aI2
aI1
aI2
aI2
aI-1
aI1
aI0
aI0
aI2
asg4
(dp515
g6
F-0.698236568381567
sg7
I-149
sg8
I3
sg9
I28
sg10
I6
sg11
I0
sg12
F-105.50232038502003
sg13
F0.36086960525555767
ssg14
(dp516
I0
(dp517
g17
F0.10308160852270024
sg18
F262.39283526803854
ssI1
(dp518
g17
F0.032668112401915715
sg18
F153.08167754502824
ssI2
(dp519
g17
F0.34641898910485891
sg18
F217.947241322298
ssI3
(dp520
g17
F0.73593359479585696
sg18
F214.51573368869705
ssI4
(dp521
g17
F0.36484500710143286
sg18
F154.14603465545261
ssI5
(dp522
g17
F0.53749267935964318
sg18
F351.57360538015365
sssg23
F1305495353.1967831
sa(dp523
g2
(lp524
I2
aI1
aI0
aI2
aI0
aI-1
aI-1
aI1
aI2
aI-1
aI-1
aI1
asg4
(dp525
g6
F-0.45008253574276363
sg7
I-79
sg8
I0
sg9
I82
sg10
I1
sg11
I1
sg12
F23.113876960083076
sg13
F0.44482630125545086
ssg14
(dp526
I0
(dp527
g17
F0.12891077168399143
sg18
F54.451813560247928
sssg23
F1305495353.2270031
sa(dp528
g2
(lp529
I1
aI-1
aI2
aI2
aI1
aI-1
aI2
aI1
aI2
aI0
aI2
aI0
asg4
(dp530
g6
F0.063929124031030682
sg7
I58
sg8
I0
sg9
I10
sg10
I2
sg11
I1
sg12
F57.059406330713728
sg13
F0.83341875417357703
ssg14
(dp531
I0
(dp532
g17
F0.9817008275075918
sg18
F253.77549133042774
ssI1
(dp533
g17
F0.16859693960942962
sg18
F143.02796929272262
sssg23
F1305495353.2571881
sa(dp534
g2
(lp535
I2
aI2
aI2
aI0
aI0
aI0
aI0
aI1
aI2
aI2
aI0
aI2
asg4
(dp536
g6
F-0.63993023426616824
sg7
I-143
sg8
I0
sg9
I43
sg10
I2
sg11
I0
sg12
F-81.003042753209854
sg13
F0.68266011100086299
ssg14
(dp537
I0
(dp538
g17
F0.6526932333415848
sg18
F304.61286906498219
ssI1
(dp539
g17
F1.5539439897535541
sg18
F178.02527910383964
sssg23
F1305495353.2874141
sa(dp540
g2
(lp541
I1
aI2
aI2
aI2
aI-1
aI1
aI1
aI2
aI0
aI-1
aI0
aI-1
asg4
(dp542
g6
F-0.22184716102487889
sg7
I-17
sg8
I0
sg9
I67
sg10
I6
sg11
I0
sg12
F44.265091378693029
sg13
F0.40953174466486131
ssg14
(dp543
I0
(dp544
g17
F0.53485162907766226
sg18
F308.01623333843946
ssI1
(dp545
g17
F0.51866946985935891
sg18
F260.22490272838991
ssI2
(dp546
g17
F0.16594739928950525
sg18
F205.8275977608445
ssI3
(dp547
g17
F0.46364760900080609
sg18
F281.74456516497349
ssI4
(dp548
g17
F0.73080764821697175
sg18
F259.18719104153274
ssI5
(dp549
g17
F0.19885754711235296
sg18
F268.28715958837836
sssg23
F1305495353.3175759
sa(dp550
g2
(lp551
I2
aI2
aI0
aI1
aI0
aI-1
aI2
aI2
aI-1
aI2
aI1
aI-1
asg4
(dp552
g6
F-0.16222587079887529
sg7
I-57
sg8
I4
sg9
I-9
sg10
I5
sg11
I1
sg12
F-23.64540038356364
sg13
F0.56178899317409547
ssg14
(dp553
I0
(dp554
g17
F0.7535249032126965
sg18
F244.07580789582568
ssI1
(dp555
g17
F1.512040504079174
sg18
F68.117545463705611
ssI2
(dp556
g17
F0.86600308529907699
sg18
F254.67822835884499
ssI3
(dp557
g17
F1.3258176636680326
sg18
F169.04733065032408
ssI4
(dp558
g17
F0.36397895650964407
sg18
F202.24984548819808
sssg23
F1305495353.3478031
sa(dp559
g2
(lp560
I0
aI-1
aI1
aI-1
aI0
aI2
aI2
aI1
aI0
aI1
aI0
aI0
asg4
(dp561
g6
F0.36106375116718992
sg7
I-28
sg8
I1
sg9
I-149
sg10
I5
sg11
I1
sg12
F-118.90612147571451
sg13
F0.32305817650885749
ssg14
(dp562
I0
(dp563
g17
F0.045839425881116773
sg18
F109.1146186356347
ssI1
(dp564
g17
F0.76635284741543186
sg18
F297.03871801500895
ssI2
(dp565
g17
F0.70184926744679621
sg18
F288.09026363277189
ssI3
(dp566
g17
F0.6142835172979918
sg18
F253.30811277967391
ssI4
(dp567
g17
F0.41265216264658328
sg18
F236.88393782610083
sssg23
F1305495353.378027
sa(dp568
g2
(lp569
I-1
aI0
aI0
aI0
aI-1
aI2
aI0
aI0
aI2
aI-1
aI-1
aI-1
asg4
(dp570
g6
F0.1154821183055314
sg7
I67
sg8
I0
sg9
I175
sg10
I4
sg11
I0
sg12
F185.92370522005251
sg13
F0.98565917857065977
ssg14
(dp571
I0
(dp572
g17
F0.51875441822268509
sg18
F316.66070169820568
ssI1
(dp573
g17
F0.77494558241223943
sg18
F202.95073293782411
ssI2
(dp574
g17
F1.0265158418489166
sg18
F44.418464629025621
ssI3
(dp575
g17
F0.32925510394392082
sg18
F337.10829120625317
sssg23
F1305495353.4082999
sa(dp576
g2
(lp577
I1
aI0
aI-1
aI0
aI2
aI-1
aI-1
aI0
aI0
aI-1
aI2
aI1
asg4
(dp578
g6
F0.14176227463328384
sg7
I18
sg8
I0
sg9
I-59
sg10
I1
sg11
I1
sg12
F-34.563144981192693
sg13
F0.8503014225255292
ssg14
(dp579
I0
(dp580
g17
F0.16352661882099317
sg18
F202.70421801235415
sssg23
F1305495353.4385271
sa(dp581
g2
(lp582
I1
aI2
aI0
aI2
aI-1
aI2
aI0
aI2
aI2
aI0
aI2
aI2
asg4
(dp583
g6
F-0.67333964694177695
sg7
I-48
sg8
I0
sg9
I40
sg10
I1
sg11
I0
sg12
F-3.4730908297424179
sg13
F0.5993295798054229
ssg14
(dp584
I0
(dp585
g17
F0.51914611424652291
sg18
F8.0622577482985491
sssg23
F1305495353.468924
sa(dp586
g2
(lp587
I-1
aI2
aI2
aI0
aI1
aI2
aI1
aI2
aI0
aI1
aI2
aI0
asg4
(dp588
g6
F0.44189486660154775
sg7
I96
sg8
I1
sg9
I-64
sg10
I3
sg11
I1
sg12
F-12.592784496896058
sg13
F0.59483342491227098
ssg14
(dp589
I0
(dp590
g17
F0.32175055439664219
sg18
F300.41637771599602
ssI1
(dp591
g17
F1.0007558630951863
sg18
F92.649878575203758
ssI2
(dp592
g17
F1.5065573513536068
sg18
F171.35343591536179
sssg23
F1305495353.4991331
sa(dp593
g2
(lp594
I0
aI-1
aI1
aI-1
aI2
aI1
aI-1
aI1
aI-1
aI2
aI2
aI2
asg4
(dp595
g6
F0.98662645709303243
sg7
I-8
sg8
I2
sg9
I-268
sg10
I3
sg11
I1
sg12
F-221.44967780290591
sg13
F0.55421030135427685
ssg14
(dp596
I0
(dp597
g17
F0.70241700834452148
sg18
F366.83647583085298
ssI1
(dp598
g17
F0.65107672144447981
sg18
F132.00378782444085
ssI2
(dp599
g17
F0.57880746040928077
sg18
F120.65239326262865
sssg23
F1305495353.5293319
sa(dp600
g2
(lp601
I-1
aI-1
aI1
aI2
aI1
aI0
aI1
aI-1
aI2
aI2
aI0
aI0
asg4
(dp602
g6
F-0.085086136571635218
sg7
I29
sg8
I0
sg9
I31
sg10
I4
sg11
I0
sg12
F41.70844288236519
sg13
F0.54209106779561622
ssg14
(dp603
I0
(dp604
g17
F1.1637384789154626
sg18
F181.85983613761451
ssI1
(dp605
g17
F1.0528089605813218
sg18
F107.0420478129973
ssI2
(dp606
g17
F0.68806361803795169
sg18
F211.00947846009194
ssI3
(dp607
g17
F0.41987995720555177
sg18
F306.63496212923928
sssg23
F1305495353.5595651
sa(dp608
g2
(lp609
I1
aI-1
aI2
aI2
aI0
aI1
aI-1
aI2
aI-1
aI1
aI0
aI2
asg4
(dp610
g6
F-0.89192317668589149
sg7
I-106
sg8
I0
sg9
I142
sg10
I1
sg11
I0
sg12
F16.2867452278972
sg13
F0.14962716081041194
ssg14
(dp611
I0
(dp612
g17
F0.60054113137900755
sg18
F176.96327302578916
sssg23
F1305495353.589762
sa(dp613
g2
(lp614
I-1
aI-1
aI-1
aI0
aI-1
aI2
aI0
aI-1
aI1
aI0
aI0
aI0
asg4
(dp615
g6
F-0.045528253360269999
sg7
I-24
sg8
I2
sg9
I-20
sg10
I6
sg11
I1
sg12
F-29.544986475849043
sg13
F0.71589726746508608
ssg14
(dp616
I0
(dp617
g17
F0.28267839401938638
sg18
F250.96015620014265
ssI1
(dp618
g17
F1.3430303610541368
sg18
F155.00322577288512
ssI2
(dp619
g17
F0.97968170009867173
sg18
F267.36678926149375
ssI3
(dp620
g17
F0.45803756967889347
sg18
F318.86831137634232
ssI4
(dp621
g17
F0.72381393841886921
sg18
F264.25177388240934
ssI5
(dp622
g17
F0.31086827540606538
sg18
F261.53584840323515
sssg23
F1305495353.619966
sa(dp623
g2
(lp624
I1
aI2
aI1
aI1
aI1
aI0
aI1
aI2
aI1
aI0
aI2
aI1
asg4
(dp625
g6
F-0.84828288172033917
sg7
I3
sg8
I1
sg9
I261
sg10
I2
sg11
I0
sg12
F126.696231904564
sg13
F0.71407405288880177
ssg14
(dp626
I0
(dp627
g17
F0.76456784336123118
sg18
F67.896980787071826
ssI1
(dp628
g17
F0.56431626115863498
sg18
F222.49719099350446
sssg23
F1305495353.650198
sa(dp629
g2
(lp630
I2
aI0
aI0
aI-1
aI-1
aI-1
aI1
aI2
aI1
aI0
aI1
aI1
asg4
(dp631
g6
F0.54013359825749818
sg7
I89
sg8
I0
sg9
I-45
sg10
I2
sg11
I0
sg12
F-14.525644998905221
sg13
F0.37313874895965937
ssg14
(dp632
I0
(dp633
g17
F1.2884989734952939
sg18
F240.52026941611388
ssI1
(dp634
g17
F0.40363392531326558
sg18
F104.38869670610895
sssg23
F1305495353.6804161
sa(dp635
g2
(lp636
I2
aI2
aI0
aI0
aI1
aI0
aI2
aI-1
aI2
aI0
aI-1
aI-1
asg4
(dp637
g6
F0.74901583684358775
sg7
I224
sg8
I0
sg9
I111
sg10
I1
sg11
I1
sg12
F210.39526404308174
sg13
F0.69536452699825602
ssg14
(dp638
I0
(dp639
g17
F0.1607627406258347
sg18
F74.966659255965254
sssg23
F1305495353.7106349
sa(dp640
g2
(lp641
I2
aI0
aI1
aI1
aI-1
aI2
aI0
aI2
aI1
aI1
aI1
aI0
asg4
(dp642
g6
F0.24815370175227691
sg7
I109
sg8
I1
sg9
I24
sg10
I5
sg11
I1
sg12
F75.430944291736807
sg13
F0.72615285604404012
ssg14
(dp643
I0
(dp644
g17
F1.0088747645380813
sg18
F63.812224534175265
ssI1
(dp645
g17
F1.1918166660535936
sg18
F121.63058825805291
ssI2
(dp646
g17
F0.36528188736843714
sg18
F341.5333073069155
ssI3
(dp647
g17
F0.24807223407794707
sg18
F313.60006377550371
ssI4
(dp648
g17
F1.2249803973515843
sg18
F144.55794685869054
sssg23
F1305495353.740859
sa(dp649
g2
(lp650
I1
aI0
aI1
aI0
aI0
aI0
aI2
aI-1
aI1
aI0
aI0
aI1
asg4
(dp651
g6
F-1.3380245852940107
sg7
I-27
sg8
I0
sg9
I232
sg10
I2
sg11
I0
sg12
F156.43028331149549
sg13
F0.88283308136560834
ssg14
(dp652
I0
(dp653
g17
F0.65810749540526559
sg18
F328.63505595112645
ssI1
(dp654
g17
F0.21729343092302111
sg18
F78.854296014865284
sssg23
F1305495353.7710359
sa(dp655
g2
(lp656
I2
aI2
aI0
aI1
aI0
aI1
aI1
aI1
aI1
aI2
aI1
aI-1
asg4
(dp657
g6
F-0.028033369931926178
sg7
I-143
sg8
I1
sg9
I-145
sg10
I3
sg11
I1
sg12
F-203.59211563036143
sg13
F0.039812011175218709
ssg14
(dp658
I0
(dp659
g17
F0.51838738905068682
sg18
F163.47782724271815
ssI1
(dp660
g17
F0.17073521147528281
sg18
F323.70665733036753
ssI2
(dp661
g17
F0.94393116124896559
sg18
F228.43160902116853
sssg23
F1305495353.801223
sa(dp662
g2
(lp663
I0
aI-1
aI-1
aI0
aI1
aI1
aI1
aI2
aI2
aI0
aI-1
aI1
asg4
(dp664
g6
F0.74281596969854191
sg7
I129
sg8
I1
sg9
I44
sg10
I5
sg11
I1
sg12
F115.58993175557595
sg13
F0.70702556274353567
ssg14
(dp665
I0
(dp666
g17
F0.77428750949984082
sg18
F127.28707711311466
ssI1
(dp667
g17
F0.80965216652624517
sg18
F262.4137953690697
ssI2
(dp668
g17
F0.49626559483317562
sg18
F233.1222855069845
ssI3
(dp669
g17
F0.96163286113412416
sg18
F157.29272074701996
ssI4
(dp670
g17
F0.51914611424652291
sg18
F72.560319734686942
sssg23
F1305495353.8314259
sa(dp671
g2
(lp672
I-1
aI-1
aI2
aI1
aI1
aI2
aI1
aI2
aI0
aI2
aI0
aI2
asg4
(dp673
g6
F0.29593621997091335
sg7
I77
sg8
I0
sg9
I-16
sg10
I5
sg11
I0
sg12
F-3.040977416155954
sg13
F0.024485355812671417
ssg14
(dp674
I0
(dp675
g17
F0.038941343097039248
sg18
F308.23367758893573
ssI1
(dp676
g17
F1.2240509787793343
sg18
F253.06125740618614
ssI2
(dp677
g17
F0.73281510178650655
sg18
F295.97972903562163
ssI3
(dp678
g17
F0.51305790940903895
sg18
F325.96932371006938
ssI4
(dp679
g17
F1.2294404415410498
sg18
F80.65358020571685
sssg23
F1305495353.861634
sa(dp680
g2
(lp681
I1
aI1
aI1
aI-1
aI0
aI0
aI1
aI-1
aI2
aI1
aI2
aI-1
asg4
(dp682
g6
F-0.20486378332320127
sg7
I-125
sg8
I0
sg9
I-95
sg10
I5
sg11
I0
sg12
F-148.38643387548584
sg13
F0.55274145159423393
ssg14
(dp683
I0
(dp684
g17
F1.4157995848709557
sg18
F194.32961688841976
ssI1
(dp685
g17
F0.3310960767041321
sg18
F67.675697262754525
ssI2
(dp686
g17
F0.73359270660644715
sg18
F286.76296832052776
ssI3
(dp687
g17
F0.080471011265460871
sg18
F248.80514464134379
ssI4
(dp688
g17
F0.5880026035475675
sg18
F331.71071734268702
sssg23
F1305495353.891819
sa(dp689
g2
(lp690
I2
aI-1
aI2
aI1
aI0
aI2
aI2
aI2
aI0
aI2
aI0
aI0
asg4
(dp691
g6
F0.11289917178335424
sg7
I41
sg8
I2
sg9
I46
sg10
I4
sg11
I1
sg12
F57.338776439031875
sg13
F0.6737835998481676
ssg14
(dp692
I0
(dp693
g17
F0.050150962636566161
sg18
F259.32604959779877
ssI1
(dp694
g17
F1.5242198670272982
sg18
F236.25621684941964
ssI2
(dp695
g17
F0.61072596438920856
sg18
F85.445889310135925
ssI3
(dp696
g17
F1.4970387444062403
sg18
F203.55343278854326
sssg23
F1305495353.9220779
sa(dp697
g2
(lp698
I1
aI-1
aI-1
aI-1
aI0
aI2
aI1
aI2
aI2
aI-1
aI2
aI0
asg4
(dp699
g6
F-1.138632307774329
sg7
I-16
sg8
I3
sg9
I282
sg10
I5
sg11
I1
sg12
F200.37061007940457
sg13
F0.93988400372344549
ssg14
(dp700
I0
(dp701
g17
F0.86418212438659214
sg18
F53.907327887774215
ssI1
(dp702
g17
F1.1937087397815234
sg18
F108.63240768757728
ssI2
(dp703
g17
F1.0636978224025597
sg18
F61.773780845922005
ssI3
(dp704
g17
F1.3127890849309416
sg18
F148.92951352905172
ssI4
(dp705
g17
F1.3859734489483748
sg18
F233.98504225697846
sssg23
F1305495353.952311
sa(dp706
g2
(lp707
I-1
aI1
aI-1
aI1
aI1
aI2
aI0
aI-1
aI-1
aI2
aI1
aI0
asg4
(dp708
g6
F0.576958006871924
sg7
I127
sg8
I2
sg9
I-114
sg10
I4
sg11
I1
sg12
F-24.424442906533272
sg13
F0.71478516227037059
ssg14
(dp709
I0
(dp710
g17
F0.97836897336301798
sg18
F250.72694310743711
ssI1
(dp711
g17
F0.93741948266447306
sg18
F256.81316165648519
ssI2
(dp712
g17
F0.70409629178905186
sg18
F95.775779819325933
ssI3
(dp713
g17
F1.4138250371957732
sg18
F140.73023839957068
sssg23
F1305495353.982548
sa(dp714
g2
(lp715
I0
aI2
aI0
aI0
aI0
aI1
aI0
aI2
aI2
aI-1
aI-1
aI-1
asg4
(dp716
g6
F-0.32470471693565911
sg7
I-62
sg8
I1
sg9
I-52
sg10
I4
sg11
I1
sg12
F-63.400912940338856
sg13
F0.28405893939855831
ssg14
(dp717
I0
(dp718
g17
F0.57530935017836471
sg18
F196.65706191235543
ssI1
(dp719
g17
F0.097009968160691837
sg18
F299.40774873072343
ssI2
(dp720
g17
F1.3025402723106636
sg18
F218.82641522448793
ssI3
(dp721
g17
F1.3889704429723722
sg18
F226.73773395709856
sssg23
F1305495354.0127881
sa(dp722
g2
(lp723
I1
aI1
aI-1
aI-1
aI0
aI0
aI-1
aI0
aI1
aI2
aI2
aI2
asg4
(dp724
g6
F-0.95284865412311326
sg7
I-94
sg8
I3
sg9
I202
sg10
I6
sg11
I0
sg12
F138.48161132200394
sg13
F0.78026535481747517
ssg14
(dp725
I0
(dp726
g17
F0.59769013686654826
sg18
F257.67033201360221
ssI1
(dp727
g17
F0.55825484412053572
sg18
F307.71740282278478
ssI2
(dp728
g17
F0.74775904419805972
sg18
F169.11830178901394
ssI3
(dp729
g17
F0.095706708086803718
sg18
F251.14935795259362
ssI4
(dp730
g17
F1.0453383035859762
sg18
F137.55726080436466
ssI5
(dp731
g17
F0.39884173045761406
sg18
F151.92432326655268
sssg23
F1305495354.043026
sa(dp732
g2
(lp733
I-1
aI2
aI0
aI2
aI-1
aI1
aI2
aI2
aI2
aI2
aI0
aI0
asg4
(dp734
g6
F0.12897416783680962
sg7
I50
sg8
I3
sg9
I82
sg10
I4
sg11
I0
sg12
F92.181255257917854
sg13
F0.75783336895390019
ssg14
(dp735
I0
(dp736
g17
F1.161602170006413
sg18
F213.63754351705134
ssI1
(dp737
g17
F0.58242126615480805
sg18
F298.1559994365366
ssI2
(dp738
g17
F0.20539538918976738
sg18
F24.515301344262525
ssI3
(dp739
g17
F0.080471011265460871
sg18
F62.201286160335947
sssg23
F1305495354.073261
sa(dp740
g2
(lp741
I0
aI1
aI2
aI1
aI2
aI2
aI0
aI0
aI2
aI2
aI2
aI2
asg4
(dp742
g6
F0.60395183898404292
sg7
I193
sg8
I1
sg9
I-2
sg10
I3
sg11
I1
sg12
F73.234117307156851
sg13
F0.93942043631437278
ssg14
(dp743
I0
(dp744
g17
F0.95360493525453438
sg18
F190.06577808748213
ssI1
(dp745
g17
F0.65272688496315956
sg18
F390.21660651489452
ssI2
(dp746
g17
F0.38460471482221353
sg18
F317.17030125785737
sssg23
F1305495354.1034999
sa(dp747
g2
(lp748
I-1
aI2
aI1
aI2
aI0
aI0
aI-1
aI2
aI1
aI-1
aI-1
aI-1
asg4
(dp749
g6
F-0.0017323499344380489
sg7
I2
sg8
I1
sg9
I26
sg10
I5
sg11
I0
sg12
F26.076012417376532
sg13
F0.25488818865772145
ssg14
(dp750
I0
(dp751
g17
F1.0040671092713902
sg18
F78.230428862431779
ssI1
(dp752
g17
F0.041498652789852805
sg18
F289.24902765610119
ssI2
(dp753
g17
F0.67804307661639862
sg18
F283.7692724732542
ssI3
(dp754
g17
F1.2422431562434455
sg18
F46.486557196677836
ssI4
(dp755
g17
F0.57499943529568431
sg18
F213.30025785263365
sssg23
F1305495354.1337211
sa(dp756
g2
(lp757
I0
aI1
aI-1
aI1
aI0
aI2
aI2
aI1
aI0
aI0
aI-1
aI1
asg4
(dp758
g6
F0.021208984255248309
sg7
I122
sg8
I0
sg9
I155
sg10
I2
sg11
I0
sg12
F197.1745430186987
sg13
F0.59449901246628289
ssg14
(dp759
I0
(dp760
g17
F0.52042216629743365
sg18
F291.60589843142748
ssI1
(dp761
g17
F0.96270713941944652
sg18
F124.27791436936813
sssg23
F1305495354.1639559
sa(dp762
g2
(lp763
I-1
aI1
aI1
aI0
aI-1
aI0
aI0
aI2
aI1
aI2
aI2
aI0
asg4
(dp764
g6
F-0.33837247926122382
sg7
I36
sg8
I2
sg9
I266
sg10
I4
sg11
I0
sg12
F266.22561977596456
sg13
F0.73352300219484501
ssg14
(dp765
I0
(dp766
g17
F0.74995202313873355
sg18
F199.52944644838766
ssI1
(dp767
g17
F1.0614060005938881
sg18
F127.1416532848303
ssI2
(dp768
g17
F0.47845137270612731
sg18
F332.31611456563462
ssI3
(dp769
g17
F0.98279372324732905
sg18
F18.027756377319946
sssg23
F1305495354.1941791
sa.